; Function Attrs: mustprogress nounwind uwtable
define hidden noundef nonnull ptr @_ZNK5clang6driver10toolchains13NaClToolChain14buildAssemblerEv(ptr noundef nonnull align 8 dereferenceable(4520) %0) unnamed_addr #0 align 2 {
  %2 = getelementptr inbounds nuw i8, ptr %0, i64 48
  %3 = load i32, ptr %2, align 8
  %4 = icmp eq i32 %3, 1
  %5 = tail call noalias noundef nonnull dereferenceable(32) ptr @_Znwm(i64 noundef 32) #13
  tail call void @_ZN5clang6driver4ToolC2EPKcS3_RKNS0_9ToolChainE(ptr noundef nonnull align 8 dereferenceable(32) %5, ptr noundef nonnull @.str.71, ptr noundef nonnull @.str.72, ptr noundef nonnull align 8 dereferenceable(2168) %0) #11
  %. = select i1 %4, ptr getelementptr inbounds nuw inrange(-16, 88) (i8, ptr @_ZTVN5clang6driver5tools9nacltools12AssemblerARME, i64 16), ptr getelementptr inbounds nuw inrange(-16, 88) (i8, ptr @_ZTVN5clang6driver5tools8gnutools9AssemblerE, i64 16)
  store ptr %., ptr %5, align 8
  ret ptr %5
}